target datalayout = "e-m:e-p270:32:32-p271:32:32-p272:64:64-i64:64-i128:128-f80:128-n8:16:32:64-S128"
target triple = "x86_64-pc-linux-gnu"

@.str.4 = private unnamed_addr constant [18 x i8] c"All tests passed\0A\00", align 1
@.str.5 = private unnamed_addr constant [14 x i8] c"Tests failed\0A\00", align 1

; Function Attrs: mustprogress uwtable
define dso_local void @_ZNK15btReducedVector4testEv(ptr noundef nonnull align 8 dereferenceable(68) %0) #2 align 2 {
  %2 = alloca ptr, align 8
  %3 = alloca i8, align 1
  store ptr %0, ptr %2, align 8, !tbaa !12
  %4 = load ptr, ptr %2, align 8
  call void @llvm.lifetime.start.p0(i64 1, ptr %3) #13
  %5 = call noundef zeroext i1 @_ZNK15btReducedVector7testAddEv(ptr noundef nonnull align 8 dereferenceable(68) %4)
  br i1 %5, label %6, label %12

6:                                                ; preds = %1
  %7 = call noundef zeroext i1 @_ZNK15btReducedVector9testMinusEv(ptr noundef nonnull align 8 dereferenceable(68) %4)
  br i1 %7, label %8, label %12

8:                                                ; preds = %6
  %9 = call noundef zeroext i1 @_ZNK15btReducedVector7testDotEv(ptr noundef nonnull align 8 dereferenceable(68) %4)
  br i1 %9, label %10, label %12

10:                                               ; preds = %8
  %11 = call noundef zeroext i1 @_ZNK15btReducedVector12testMultiplyEv(ptr noundef nonnull align 8 dereferenceable(68) %4)
  br label %12

12:                                               ; preds = %10, %8, %6, %1
  %13 = phi i1 [ false, %8 ], [ false, %6 ], [ false, %1 ], [ %11, %10 ]
  %14 = zext i1 %13 to i8
  store i8 %14, ptr %3, align 1, !tbaa !33
  %15 = load i8, ptr %3, align 1, !tbaa !33, !range !34, !noundef !35
  %16 = trunc i8 %15 to i1
  br i1 %16, label %17, label %19

17:                                               ; preds = %12
  %18 = call i32 (ptr, ...) @printf(ptr noundef @.str.4)
  br label %21

19:                                               ; preds = %12
  %20 = call i32 (ptr, ...) @printf(ptr noundef @.str.5)
  br label %21

21:                                               ; preds = %19, %17
  call void @llvm.lifetime.end.p0(i64 1, ptr %3) #13
  ret void
}