; Function Attrs: mustprogress uwtable
define dso_local void @_ZNK15btReducedVector4testEv(ptr noundef nonnull readnone align 8 captures(none) dereferenceable(68) %0) local_unnamed_addr #0 align 2 {
  %2 = tail call noundef zeroext i1 @_ZNK15btReducedVector7testAddEv(ptr nonnull align 8 poison)
  br i1 %2, label %3, label %.critedge

3:                                                ; preds = %1
  %4 = tail call noundef zeroext i1 @_ZNK15btReducedVector9testMinusEv(ptr nonnull align 8 poison)
  br i1 %4, label %5, label %.critedge

5:                                                ; preds = %3
  %6 = tail call noundef zeroext i1 @_ZNK15btReducedVector7testDotEv(ptr nonnull align 8 poison)
  br i1 %6, label %7, label %.critedge

7:                                                ; preds = %5
  %8 = tail call noundef zeroext i1 @_ZNK15btReducedVector12testMultiplyEv(ptr nonnull align 8 poison)
  br i1 %8, label %9, label %.critedge

.critedge:                                        ; preds = %5, %3, %1, %7
  br label %9

9:                                                ; preds = %7, %.critedge
  %str.4.sink = phi ptr [ @str.4, %.critedge ], [ @str.5, %7 ]
  %puts = tail call i32 @puts(ptr nonnull dereferenceable(1) %str.4.sink)
  ret void
}